; ModuleID = '51/746.c'
source_filename = "51/746.c"
target datalayout = "e-m:e-p270:32:32-p271:32:32-p272:64:64-i64:64-f80:128-n8:16:32:64-S128"
target triple = "x86_64-pc-linux-gnu"

@.str = private unnamed_addr constant [3 x i8] c"%d\00", align 1
@.str.1 = private unnamed_addr constant [3 x i8] c"%s\00", align 1
@.str.2 = private unnamed_addr constant [4 x i8] c"%d\0A\00", align 1
@.str.3 = private unnamed_addr constant [3 x i8] c"%c\00", align 1
@.str.4 = private unnamed_addr constant [2 x i8] c"\0A\00", align 1
@.str.5 = private unnamed_addr constant [4 x i8] c"NO\0A\00", align 1

; Function Attrs: noinline nounwind uwtable
define dso_local i32 @main() #0 {
  %1 = alloca i32, align 4
  %2 = alloca [502 x i8], align 16
  %3 = alloca [502 x i32], align 16
  %4 = alloca i32, align 4
  %5 = alloca i32, align 4
  %6 = alloca i32, align 4
  %7 = alloca i32, align 4
  %8 = alloca i32, align 4
  %9 = alloca i32, align 4
  %10 = alloca i32, align 4
  %11 = alloca i32, align 4
  store i32 0, i32* %1, align 4
  %12 = bitcast [502 x i32]* %3 to i8*
  call void @llvm.memset.p0i8.i64(i8* align 16 %12, i8 0, i64 2008, i1 false)
  %13 = bitcast i8* %12 to <{ i32, [501 x i32] }>*
  %14 = getelementptr inbounds <{ i32, [501 x i32] }>, <{ i32, [501 x i32] }>* %13, i32 0, i32 0
  store i32 1, i32* %14, align 16
  %15 = call i32 (i8*, ...) @__isoc99_scanf(i8* getelementptr inbounds ([3 x i8], [3 x i8]* @.str, i64 0, i64 0), i32* %4)
  %16 = getelementptr inbounds [502 x i8], [502 x i8]* %2, i64 0, i64 0
  %17 = call i32 (i8*, ...) @__isoc99_scanf(i8* getelementptr inbounds ([3 x i8], [3 x i8]* @.str.1, i64 0, i64 0), i8* %16)
  %18 = getelementptr inbounds [502 x i8], [502 x i8]* %2, i64 0, i64 0
  %19 = call i64 @strlen(i8* %18) #4
  %20 = trunc i64 %19 to i32
  store i32 %20, i32* %5, align 4
  store i32 1, i32* %6, align 4
  br label %21

21:                                               ; preds = %85, %0
  %22 = load i32, i32* %6, align 4
  %23 = load i32, i32* %5, align 4
  %24 = load i32, i32* %4, align 4
  %25 = sub nsw i32 %23, %24
  %26 = icmp sle i32 %22, %25
  br i1 %26, label %27, label %88

27:                                               ; preds = %21
  store i32 0, i32* %8, align 4
  br label %28

28:                                               ; preds = %66, %27
  %29 = load i32, i32* %8, align 4
  %30 = load i32, i32* %6, align 4
  %31 = icmp slt i32 %29, %30
  br i1 %31, label %32, label %69

32:                                               ; preds = %28
  store i32 0, i32* %9, align 4
  store i32 0, i32* %7, align 4
  br label %33

33:                                               ; preds = %58, %32
  %34 = load i32, i32* %7, align 4
  %35 = load i32, i32* %4, align 4
  %36 = sub nsw i32 %35, 1
  %37 = icmp sle i32 %34, %36
  br i1 %37, label %38, label %61

38:                                               ; preds = %33
  %39 = load i32, i32* %6, align 4
  %40 = load i32, i32* %7, align 4
  %41 = add nsw i32 %39, %40
  %42 = sext i32 %41 to i64
  %43 = getelementptr inbounds [502 x i8], [502 x i8]* %2, i64 0, i64 %42
  %44 = load i8, i8* %43, align 1
  %45 = sext i8 %44 to i32
  %46 = load i32, i32* %8, align 4
  %47 = load i32, i32* %7, align 4
  %48 = add nsw i32 %46, %47
  %49 = sext i32 %48 to i64
  %50 = getelementptr inbounds [502 x i8], [502 x i8]* %2, i64 0, i64 %49
  %51 = load i8, i8* %50, align 1
  %52 = sext i8 %51 to i32
  %53 = icmp ne i32 %45, %52
  br i1 %53, label %54, label %57

54:                                               ; preds = %38
  %55 = load i32, i32* %9, align 4
  %56 = add nsw i32 %55, 1
  store i32 %56, i32* %9, align 4
  br label %61

57:                                               ; preds = %38
  br label %58

58:                                               ; preds = %57
  %59 = load i32, i32* %7, align 4
  %60 = add nsw i32 %59, 1
  store i32 %60, i32* %7, align 4
  br label %33

61:                                               ; preds = %54, %33
  %62 = load i32, i32* %9, align 4
  %63 = icmp eq i32 %62, 0
  br i1 %63, label %64, label %65

64:                                               ; preds = %61
  br label %69

65:                                               ; preds = %61
  br label %66

66:                                               ; preds = %65
  %67 = load i32, i32* %8, align 4
  %68 = add nsw i32 %67, 1
  store i32 %68, i32* %8, align 4
  br label %28

69:                                               ; preds = %64, %28
  %70 = load i32, i32* %9, align 4
  %71 = icmp eq i32 %70, 0
  br i1 %71, label %72, label %78

72:                                               ; preds = %69
  %73 = load i32, i32* %8, align 4
  %74 = sext i32 %73 to i64
  %75 = getelementptr inbounds [502 x i32], [502 x i32]* %3, i64 0, i64 %74
  %76 = load i32, i32* %75, align 4
  %77 = add nsw i32 %76, 1
  store i32 %77, i32* %75, align 4
  br label %84

78:                                               ; preds = %69
  %79 = load i32, i32* %6, align 4
  %80 = sext i32 %79 to i64
  %81 = getelementptr inbounds [502 x i32], [502 x i32]* %3, i64 0, i64 %80
  %82 = load i32, i32* %81, align 4
  %83 = add nsw i32 %82, 1
  store i32 %83, i32* %81, align 4
  br label %84

84:                                               ; preds = %78, %72
  br label %85

85:                                               ; preds = %84
  %86 = load i32, i32* %6, align 4
  %87 = add nsw i32 %86, 1
  store i32 %87, i32* %6, align 4
  br label %21

88:                                               ; preds = %21
  %89 = getelementptr inbounds [502 x i32], [502 x i32]* %3, i64 0, i64 0
  %90 = load i32, i32* %89, align 16
  store i32 %90, i32* %10, align 4
  store i32 1, i32* %6, align 4
  br label %91

91:                                               ; preds = %110, %88
  %92 = load i32, i32* %6, align 4
  %93 = load i32, i32* %5, align 4
  %94 = load i32, i32* %4, align 4
  %95 = sub nsw i32 %93, %94
  %96 = icmp sle i32 %92, %95
  br i1 %96, label %97, label %113

97:                                               ; preds = %91
  %98 = load i32, i32* %6, align 4
  %99 = sext i32 %98 to i64
  %100 = getelementptr inbounds [502 x i32], [502 x i32]* %3, i64 0, i64 %99
  %101 = load i32, i32* %100, align 4
  %102 = load i32, i32* %10, align 4
  %103 = icmp sge i32 %101, %102
  br i1 %103, label %104, label %109

104:                                              ; preds = %97
  %105 = load i32, i32* %6, align 4
  %106 = sext i32 %105 to i64
  %107 = getelementptr inbounds [502 x i32], [502 x i32]* %3, i64 0, i64 %106
  %108 = load i32, i32* %107, align 4
  store i32 %108, i32* %10, align 4
  br label %109

109:                                              ; preds = %104, %97
  br label %110

110:                                              ; preds = %109
  %111 = load i32, i32* %6, align 4
  %112 = add nsw i32 %111, 1
  store i32 %112, i32* %6, align 4
  br label %91

113:                                              ; preds = %91
  %114 = load i32, i32* %10, align 4
  %115 = icmp sgt i32 %114, 1
  br i1 %115, label %116, label %157

116:                                              ; preds = %113
  %117 = load i32, i32* %10, align 4
  %118 = call i32 (i8*, ...) @printf(i8* getelementptr inbounds ([4 x i8], [4 x i8]* @.str.2, i64 0, i64 0), i32 %117)
  store i32 0, i32* %6, align 4
  br label %119

119:                                              ; preds = %153, %116
  %120 = load i32, i32* %6, align 4
  %121 = load i32, i32* %5, align 4
  %122 = load i32, i32* %4, align 4
  %123 = sub nsw i32 %121, %122
  %124 = icmp sle i32 %120, %123
  br i1 %124, label %125, label %156

125:                                              ; preds = %119
  %126 = load i32, i32* %6, align 4
  %127 = sext i32 %126 to i64
  %128 = getelementptr inbounds [502 x i32], [502 x i32]* %3, i64 0, i64 %127
  %129 = load i32, i32* %128, align 4
  %130 = load i32, i32* %10, align 4
  %131 = icmp eq i32 %129, %130
  br i1 %131, label %132, label %152

132:                                              ; preds = %125
  store i32 0, i32* %7, align 4
  br label %133

133:                                              ; preds = %147, %132
  %134 = load i32, i32* %7, align 4
  %135 = load i32, i32* %4, align 4
  %136 = sub nsw i32 %135, 1
  %137 = icmp sle i32 %134, %136
  br i1 %137, label %138, label %150

138:                                              ; preds = %133
  %139 = load i32, i32* %6, align 4
  %140 = load i32, i32* %7, align 4
  %141 = add nsw i32 %139, %140
  %142 = sext i32 %141 to i64
  %143 = getelementptr inbounds [502 x i8], [502 x i8]* %2, i64 0, i64 %142
  %144 = load i8, i8* %143, align 1
  %145 = sext i8 %144 to i32
  %146 = call i32 (i8*, ...) @printf(i8* getelementptr inbounds ([3 x i8], [3 x i8]* @.str.3, i64 0, i64 0), i32 %145)
  br label %147

147:                                              ; preds = %138
  %148 = load i32, i32* %7, align 4
  %149 = add nsw i32 %148, 1
  store i32 %149, i32* %7, align 4
  br label %133

150:                                              ; preds = %133
  %151 = call i32 (i8*, ...) @printf(i8* getelementptr inbounds ([2 x i8], [2 x i8]* @.str.4, i64 0, i64 0))
  br label %152

152:                                              ; preds = %150, %125
  br label %153

153:                                              ; preds = %152
  %154 = load i32, i32* %6, align 4
  %155 = add nsw i32 %154, 1
  store i32 %155, i32* %6, align 4
  br label %119

156:                                              ; preds = %119
  br label %157

157:                                              ; preds = %156, %113
  %158 = load i32, i32* %10, align 4
  %159 = icmp eq i32 %158, 1
  br i1 %159, label %160, label %162

160:                                              ; preds = %157
  %161 = call i32 (i8*, ...) @printf(i8* getelementptr inbounds ([4 x i8], [4 x i8]* @.str.5, i64 0, i64 0))
  br label %162

162:                                              ; preds = %160, %157
  %163 = load i32, i32* %1, align 4
  ret i32 %163
}

; Function Attrs: argmemonly nounwind willreturn
declare void @llvm.memset.p0i8.i64(i8* nocapture writeonly, i8, i64, i1 immarg) #1

declare dso_local i32 @__isoc99_scanf(i8*, ...) #2

; Function Attrs: nounwind readonly
declare dso_local i64 @strlen(i8*) #3

declare dso_local i32 @printf(i8*, ...) #2


!llvm.module.flags = !{!0}
!llvm.ident = !{!1}

!0 = !{i32 1, !"wchar_size", i32 4}
!1 = !{!"clang version 10.0.0-4ubuntu1 "}
